; Function Attrs: mustprogress uwtable
define hidden void @_ZN4cvc58internal6theory11quantifiers24EquivSygusInvarianceTest4initEPNS2_11TermDbSygusENS0_8TypeNodeEPNS2_15SynthConjectureENS0_12NodeTemplateILb1EEESA_(ptr noundef nonnull align 8 dereferenceable(72) %0, ptr noundef readnone captures(none) %1, ptr noundef readnone captures(none) %2, ptr noundef %3, ptr noundef readonly captures(none) %4, ptr noundef readonly captures(none) %5) local_unnamed_addr #3 align 2 personality ptr @__gxx_personality_v0 {
  %7 = alloca %"class.cvc5::internal::NodeTemplate", align 8
  %8 = alloca %"class.cvc5::internal::NodeTemplate", align 8
  %9 = getelementptr inbounds nuw i8, ptr %0, i64 40
  %10 = load ptr, ptr %9, align 8, !tbaa !10
  %11 = load ptr, ptr %5, align 8, !tbaa !10
  %.not.i = icmp eq ptr %10, %11
  br i1 %.not.i, label %_ZN4cvc58internal12NodeTemplateILb1EEaSERKS2_.exit, label %12, !prof !13

12:                                               ; preds = %6
  %13 = load i64, ptr %10, align 8
  %14 = and i64 %13, 1152920405095219200
  %.not.i.i = icmp eq i64 %14, 1152920405095219200
  br i1 %.not.i.i, label %_ZN4cvc58internal4expr9NodeValue3decEv.exit.i, label %15, !prof !13

15:                                               ; preds = %12
  %16 = add i64 %13, 1152920405095219200
  %17 = and i64 %16, 1152920405095219200
  %18 = and i64 %13, -1152920405095219201
  %19 = or disjoint i64 %17, %18
  store i64 %19, ptr %10, align 8
  %20 = icmp eq i64 %17, 0
  br i1 %20, label %21, label %_ZN4cvc58internal4expr9NodeValue3decEv.exit.i, !prof !13

21:                                               ; preds = %15
  tail call void @_ZN4cvc58internal4expr9NodeValue15markForDeletionEv(ptr noundef nonnull align 8 dereferenceable(24) %10)
  br label %_ZN4cvc58internal4expr9NodeValue3decEv.exit.i

_ZN4cvc58internal4expr9NodeValue3decEv.exit.i:    ; preds = %21, %15, %12
  %22 = load ptr, ptr %5, align 8, !tbaa !10
  store ptr %22, ptr %9, align 8, !tbaa !10
  %23 = load i64, ptr %22, align 8
  %24 = lshr i64 %23, 40
  %25 = trunc nuw nsw i64 %24 to i32
  %26 = and i32 %25, 1048575
  %27 = icmp samesign ult i32 %26, 1048574
  br i1 %27, label %28, label %33, !prof !34

28:                                               ; preds = %_ZN4cvc58internal4expr9NodeValue3decEv.exit.i
  %29 = add i64 %23, 1099511627776
  %30 = and i64 %29, 1152920405095219200
  %31 = and i64 %23, -1152920405095219201
  %32 = or disjoint i64 %30, %31
  store i64 %32, ptr %22, align 8
  br label %_ZN4cvc58internal12NodeTemplateILb1EEaSERKS2_.exit

33:                                               ; preds = %_ZN4cvc58internal4expr9NodeValue3decEv.exit.i
  %34 = icmp eq i32 %26, 1048574
  br i1 %34, label %35, label %_ZN4cvc58internal12NodeTemplateILb1EEaSERKS2_.exit, !prof !13

35:                                               ; preds = %33
  %36 = or i64 %23, 1152920405095219200
  store i64 %36, ptr %22, align 8
  tail call void @_ZN4cvc58internal4expr9NodeValue20markRefCountMaxedOutEv(ptr noundef nonnull align 8 dereferenceable(24) %22)
  br label %_ZN4cvc58internal12NodeTemplateILb1EEaSERKS2_.exit

_ZN4cvc58internal12NodeTemplateILb1EEaSERKS2_.exit: ; preds = %6, %28, %33, %35
  %.not = icmp eq ptr %3, null
  br i1 %.not, label %_ZN4cvc58internal12NodeTemplateILb1EEaSERKS2_.exit21, label %37

37:                                               ; preds = %_ZN4cvc58internal12NodeTemplateILb1EEaSERKS2_.exit
  %38 = load ptr, ptr %4, align 8, !tbaa !10
  store ptr %38, ptr %7, align 8, !tbaa !10
  %39 = load i64, ptr %38, align 8
  %40 = lshr i64 %39, 40
  %41 = trunc nuw nsw i64 %40 to i32
  %42 = and i32 %41, 1048575
  %43 = icmp samesign ult i32 %42, 1048574
  br i1 %43, label %44, label %49, !prof !34

44:                                               ; preds = %37
  %45 = add i64 %39, 1099511627776
  %46 = and i64 %45, 1152920405095219200
  %47 = and i64 %39, -1152920405095219201
  %48 = or disjoint i64 %46, %47
  store i64 %48, ptr %38, align 8
  br label %_ZN4cvc58internal12NodeTemplateILb1EEC2ERKS2_.exit

49:                                               ; preds = %37
  %50 = icmp eq i32 %42, 1048574
  br i1 %50, label %51, label %_ZN4cvc58internal12NodeTemplateILb1EEC2ERKS2_.exit, !prof !13

51:                                               ; preds = %49
  %52 = or i64 %39, 1152920405095219200
  store i64 %52, ptr %38, align 8
  tail call void @_ZN4cvc58internal4expr9NodeValue20markRefCountMaxedOutEv(ptr noundef nonnull align 8 dereferenceable(24) %38)
  br label %_ZN4cvc58internal12NodeTemplateILb1EEC2ERKS2_.exit

_ZN4cvc58internal12NodeTemplateILb1EEC2ERKS2_.exit: ; preds = %44, %49, %51
  %53 = invoke noundef ptr @_ZN4cvc58internal6theory11quantifiers15SynthConjecture19getExampleEvalCacheENS0_12NodeTemplateILb1EEE(ptr noundef nonnull align 8 dereferenceable(929) %3, ptr noundef nonnull %7)
          to label %54 unwind label %128

54:                                               ; preds = %_ZN4cvc58internal12NodeTemplateILb1EEC2ERKS2_.exit
  %55 = load ptr, ptr %7, align 8, !tbaa !10
  %56 = load i64, ptr %55, align 8
  %57 = and i64 %56, 1152920405095219200
  %.not.i.i12 = icmp eq i64 %57, 1152920405095219200
  br i1 %.not.i.i12, label %_ZN4cvc58internal12NodeTemplateILb1EED2Ev.exit, label %58, !prof !13

58:                                               ; preds = %54
  %59 = add i64 %56, 1152920405095219200
  %60 = and i64 %59, 1152920405095219200
  %61 = and i64 %56, -1152920405095219201
  %62 = or disjoint i64 %60, %61
  store i64 %62, ptr %55, align 8
  %63 = icmp eq i64 %60, 0
  br i1 %63, label %64, label %_ZN4cvc58internal12NodeTemplateILb1EED2Ev.exit, !prof !13

64:                                               ; preds = %58
  invoke void @_ZN4cvc58internal4expr9NodeValue15markForDeletionEv(ptr noundef nonnull align 8 dereferenceable(24) %55)
          to label %_ZN4cvc58internal12NodeTemplateILb1EED2Ev.exit unwind label %65

65:                                               ; preds = %64
  %66 = landingpad { ptr, i32 }
          catch ptr null
  %67 = extractvalue { ptr, i32 } %66, 0
  call void @__clang_call_terminate(ptr %67) #21
  unreachable

_ZN4cvc58internal12NodeTemplateILb1EED2Ev.exit:   ; preds = %54, %58, %64
  %.not10 = icmp eq ptr %53, null
  br i1 %.not10, label %_ZN4cvc58internal12NodeTemplateILb1EEaSERKS2_.exit21, label %68

68:                                               ; preds = %_ZN4cvc58internal12NodeTemplateILb1EED2Ev.exit
  %69 = load ptr, ptr %5, align 8, !tbaa !10
  store ptr %69, ptr %8, align 8, !tbaa !10
  %70 = load i64, ptr %69, align 8
  %71 = lshr i64 %70, 40
  %72 = trunc nuw nsw i64 %71 to i32
  %73 = and i32 %72, 1048575
  %74 = icmp samesign ult i32 %73, 1048574
  br i1 %74, label %75, label %80, !prof !34

75:                                               ; preds = %68
  %76 = add i64 %70, 1099511627776
  %77 = and i64 %76, 1152920405095219200
  %78 = and i64 %70, -1152920405095219201
  %79 = or disjoint i64 %77, %78
  store i64 %79, ptr %69, align 8
  br label %_ZN4cvc58internal12NodeTemplateILb1EEC2ERKS2_.exit14

80:                                               ; preds = %68
  %81 = icmp eq i32 %73, 1048574
  br i1 %81, label %82, label %_ZN4cvc58internal12NodeTemplateILb1EEC2ERKS2_.exit14, !prof !13

82:                                               ; preds = %80
  %83 = or i64 %70, 1152920405095219200
  store i64 %83, ptr %69, align 8
  call void @_ZN4cvc58internal4expr9NodeValue20markRefCountMaxedOutEv(ptr noundef nonnull align 8 dereferenceable(24) %69)
  br label %_ZN4cvc58internal12NodeTemplateILb1EEC2ERKS2_.exit14

_ZN4cvc58internal12NodeTemplateILb1EEC2ERKS2_.exit14: ; preds = %75, %80, %82
  %84 = getelementptr inbounds nuw i8, ptr %0, i64 48
  invoke void @_ZN4cvc58internal6theory11quantifiers16ExampleEvalCache11evaluateVecENS0_12NodeTemplateILb1EEERSt6vectorIS5_SaIS5_EEb(ptr noundef nonnull align 8 dereferenceable(144) %53, ptr noundef nonnull %8, ptr noundef nonnull align 8 dereferenceable(24) %84, i1 noundef zeroext false)
          to label %85 unwind label %130

85:                                               ; preds = %_ZN4cvc58internal12NodeTemplateILb1EEC2ERKS2_.exit14
  %86 = load ptr, ptr %8, align 8, !tbaa !10
  %87 = load i64, ptr %86, align 8
  %88 = and i64 %87, 1152920405095219200
  %.not.i.i15 = icmp eq i64 %88, 1152920405095219200
  br i1 %.not.i.i15, label %_ZN4cvc58internal12NodeTemplateILb1EED2Ev.exit17, label %89, !prof !13

89:                                               ; preds = %85
  %90 = add i64 %87, 1152920405095219200
  %91 = and i64 %90, 1152920405095219200
  %92 = and i64 %87, -1152920405095219201
  %93 = or disjoint i64 %91, %92
  store i64 %93, ptr %86, align 8
  %94 = icmp eq i64 %91, 0
  br i1 %94, label %95, label %_ZN4cvc58internal12NodeTemplateILb1EED2Ev.exit17, !prof !13

95:                                               ; preds = %89
  invoke void @_ZN4cvc58internal4expr9NodeValue15markForDeletionEv(ptr noundef nonnull align 8 dereferenceable(24) %86)
          to label %_ZN4cvc58internal12NodeTemplateILb1EED2Ev.exit17 unwind label %96

96:                                               ; preds = %95
  %97 = landingpad { ptr, i32 }
          catch ptr null
  %98 = extractvalue { ptr, i32 } %97, 0
  call void @__clang_call_terminate(ptr %98) #21
  unreachable

_ZN4cvc58internal12NodeTemplateILb1EED2Ev.exit17: ; preds = %85, %89, %95
  %99 = getelementptr inbounds nuw i8, ptr %0, i64 24
  store ptr %3, ptr %99, align 8, !tbaa !68
  %100 = getelementptr inbounds nuw i8, ptr %0, i64 32
  %101 = load ptr, ptr %100, align 8, !tbaa !10
  %102 = load ptr, ptr %4, align 8, !tbaa !10
  %.not.i18 = icmp eq ptr %101, %102
  br i1 %.not.i18, label %_ZN4cvc58internal12NodeTemplateILb1EEaSERKS2_.exit21, label %103, !prof !13

103:                                              ; preds = %_ZN4cvc58internal12NodeTemplateILb1EED2Ev.exit17
  %104 = load i64, ptr %101, align 8
  %105 = and i64 %104, 1152920405095219200
  %.not.i.i19 = icmp eq i64 %105, 1152920405095219200
  br i1 %.not.i.i19, label %_ZN4cvc58internal4expr9NodeValue3decEv.exit.i20, label %106, !prof !13

106:                                              ; preds = %103
  %107 = add i64 %104, 1152920405095219200
  %108 = and i64 %107, 1152920405095219200
  %109 = and i64 %104, -1152920405095219201
  %110 = or disjoint i64 %108, %109
  store i64 %110, ptr %101, align 8
  %111 = icmp eq i64 %108, 0
  br i1 %111, label %112, label %_ZN4cvc58internal4expr9NodeValue3decEv.exit.i20, !prof !13

112:                                              ; preds = %106
  call void @_ZN4cvc58internal4expr9NodeValue15markForDeletionEv(ptr noundef nonnull align 8 dereferenceable(24) %101)
  br label %_ZN4cvc58internal4expr9NodeValue3decEv.exit.i20

_ZN4cvc58internal4expr9NodeValue3decEv.exit.i20:  ; preds = %112, %106, %103
  %113 = load ptr, ptr %4, align 8, !tbaa !10
  store ptr %113, ptr %100, align 8, !tbaa !10
  %114 = load i64, ptr %113, align 8
  %115 = lshr i64 %114, 40
  %116 = trunc nuw nsw i64 %115 to i32
  %117 = and i32 %116, 1048575
  %118 = icmp samesign ult i32 %117, 1048574
  br i1 %118, label %119, label %124, !prof !34

119:                                              ; preds = %_ZN4cvc58internal4expr9NodeValue3decEv.exit.i20
  %120 = add i64 %114, 1099511627776
  %121 = and i64 %120, 1152920405095219200
  %122 = and i64 %114, -1152920405095219201
  %123 = or disjoint i64 %121, %122
  store i64 %123, ptr %113, align 8
  br label %_ZN4cvc58internal12NodeTemplateILb1EEaSERKS2_.exit21

124:                                              ; preds = %_ZN4cvc58internal4expr9NodeValue3decEv.exit.i20
  %125 = icmp eq i32 %117, 1048574
  br i1 %125, label %126, label %_ZN4cvc58internal12NodeTemplateILb1EEaSERKS2_.exit21, !prof !13

126:                                              ; preds = %124
  %127 = or i64 %114, 1152920405095219200
  store i64 %127, ptr %113, align 8
  call void @_ZN4cvc58internal4expr9NodeValue20markRefCountMaxedOutEv(ptr noundef nonnull align 8 dereferenceable(24) %113)
  br label %_ZN4cvc58internal12NodeTemplateILb1EEaSERKS2_.exit21

128:                                              ; preds = %_ZN4cvc58internal12NodeTemplateILb1EEC2ERKS2_.exit
  %129 = landingpad { ptr, i32 }
          cleanup
  br label %132

130:                                              ; preds = %_ZN4cvc58internal12NodeTemplateILb1EEC2ERKS2_.exit14
  %131 = landingpad { ptr, i32 }
          cleanup
  br label %132

132:                                              ; preds = %130, %128
  %.sink = phi ptr [ %8, %130 ], [ %7, %128 ]
  %.pn = phi { ptr, i32 } [ %131, %130 ], [ %129, %128 ]
  call void @_ZN4cvc58internal12NodeTemplateILb1EED2Ev(ptr noundef nonnull align 8 dereferenceable(8) %.sink) #22
  resume { ptr, i32 } %.pn

_ZN4cvc58internal12NodeTemplateILb1EEaSERKS2_.exit21: ; preds = %126, %124, %119, %_ZN4cvc58internal12NodeTemplateILb1EED2Ev.exit17, %_ZN4cvc58internal12NodeTemplateILb1EED2Ev.exit, %_ZN4cvc58internal12NodeTemplateILb1EEaSERKS2_.exit
  ret void
}